target datalayout = "e-m:e-p270:32:32-p271:32:32-p272:64:64-i64:64-i128:128-f80:128-n8:16:32:64-S128"
target triple = "x86_64-pc-linux-gnu"

%struct.TValue = type { %union.Value, i8 }
%union.Value = type { ptr }
%struct.Table = type { ptr, i8, i8, i8, i8, i32, ptr, ptr, ptr, ptr }

; Function Attrs: nounwind uwtable
define hidden ptr @luaT_gettm(ptr noundef %0, i32 noundef %1, ptr noundef %2) #0 {
  %4 = alloca ptr, align 8
  %5 = alloca ptr, align 8
  %6 = alloca i32, align 4
  %7 = alloca ptr, align 8
  %8 = alloca ptr, align 8
  %9 = alloca i32, align 4
  store ptr %0, ptr %5, align 8, !tbaa !26
  store i32 %1, ptr %6, align 4, !tbaa !9
  store ptr %2, ptr %7, align 8, !tbaa !24
  call void @llvm.lifetime.start.p0(i64 8, ptr %8) #6
  %10 = load ptr, ptr %5, align 8, !tbaa !26
  %11 = load ptr, ptr %7, align 8, !tbaa !24
  %12 = call ptr @luaH_Hgetshortstr(ptr noundef %10, ptr noundef %11)
  store ptr %12, ptr %8, align 8, !tbaa !28
  %13 = load ptr, ptr %8, align 8, !tbaa !28
  %14 = getelementptr inbounds nuw %struct.TValue, ptr %13, i32 0, i32 1
  %15 = load i8, ptr %14, align 8, !tbaa !30
  %16 = zext i8 %15 to i32
  %17 = and i32 %16, 15
  %18 = icmp eq i32 %17, 0
  br i1 %18, label %19, label %30

19:                                               ; preds = %3
  %20 = load i32, ptr %6, align 4, !tbaa !9
  %21 = shl i32 1, %20
  %22 = trunc i32 %21 to i8
  %23 = zext i8 %22 to i32
  %24 = load ptr, ptr %5, align 8, !tbaa !26
  %25 = getelementptr inbounds nuw %struct.Table, ptr %24, i32 0, i32 3
  %26 = load i8, ptr %25, align 2, !tbaa !32
  %27 = zext i8 %26 to i32
  %28 = or i32 %27, %23
  %29 = trunc i32 %28 to i8
  store i8 %29, ptr %25, align 2, !tbaa !32
  store ptr null, ptr %4, align 8
  store i32 1, ptr %9, align 4
  br label %32

30:                                               ; preds = %3
  %31 = load ptr, ptr %8, align 8, !tbaa !28
  store ptr %31, ptr %4, align 8
  store i32 1, ptr %9, align 4
  br label %32

32:                                               ; preds = %30, %19
  call void @llvm.lifetime.end.p0(i64 8, ptr %8) #6
  %33 = load ptr, ptr %4, align 8
  ret ptr %33
}