; Function Attrs: nounwind uwtable
define hidden ptr @luaT_gettm(ptr noundef %0, i32 noundef %1, ptr noundef %2) local_unnamed_addr #0 {
  %4 = tail call ptr @luaH_Hgetshortstr(ptr noundef %0, ptr noundef %2) #5
  %5 = getelementptr inbounds nuw i8, ptr %4, i64 8
  %6 = load i8, ptr %5, align 8, !tbaa !24
  %7 = and i8 %6, 15
  %8 = icmp eq i8 %7, 0
  br i1 %8, label %9, label %15

9:                                                ; preds = %3
  %10 = shl nuw i32 1, %1
  %11 = getelementptr inbounds nuw i8, ptr %0, i64 10
  %12 = load i8, ptr %11, align 2, !tbaa !26
  %13 = trunc i32 %10 to i8
  %14 = or i8 %12, %13
  store i8 %14, ptr %11, align 2, !tbaa !26
  br label %15

15:                                               ; preds = %3, %9
  %.0 = phi ptr [ null, %9 ], [ %4, %3 ]
  ret ptr %.0
}